target datalayout = "e-m:e-p270:32:32-p271:32:32-p272:64:64-i64:64-i128:128-f80:128-n8:16:32:64-S128"
target triple = "x86_64-pc-linux-gnu"

; Function Attrs: mustprogress nounwind uwtable
define noundef zeroext i8 @_ZN8WasmEdge16convertCharToHexEc(i8 noundef signext %0) #0 {
  %2 = alloca i8, align 1
  %3 = alloca i8, align 1
  store i8 %0, ptr %3, align 1
  %4 = load i8, ptr %3, align 1
  %5 = sext i8 %4 to i32
  %6 = icmp sge i32 %5, 48
  br i1 %6, label %7, label %19

7:                                                ; preds = %1
  %8 = load i8, ptr %3, align 1
  %9 = sext i8 %8 to i32
  %10 = icmp sle i32 %9, 57
  br i1 %10, label %11, label %19

11:                                               ; preds = %7
  %12 = load i8, ptr %3, align 1
  %13 = sext i8 %12 to i32
  %14 = sub nsw i32 %13, 48
  %15 = trunc i32 %14 to i8
  %16 = zext i8 %15 to i32
  %17 = add nsw i32 %16, 0
  %18 = trunc i32 %17 to i8
  store i8 %18, ptr %2, align 1
  br label %52

19:                                               ; preds = %7, %1
  %20 = load i8, ptr %3, align 1
  %21 = sext i8 %20 to i32
  %22 = icmp sge i32 %21, 97
  br i1 %22, label %23, label %35

23:                                               ; preds = %19
  %24 = load i8, ptr %3, align 1
  %25 = sext i8 %24 to i32
  %26 = icmp sle i32 %25, 102
  br i1 %26, label %27, label %35

27:                                               ; preds = %23
  %28 = load i8, ptr %3, align 1
  %29 = sext i8 %28 to i32
  %30 = sub nsw i32 %29, 97
  %31 = trunc i32 %30 to i8
  %32 = zext i8 %31 to i32
  %33 = add nsw i32 %32, 10
  %34 = trunc i32 %33 to i8
  store i8 %34, ptr %2, align 1
  br label %52

35:                                               ; preds = %23, %19
  %36 = load i8, ptr %3, align 1
  %37 = sext i8 %36 to i32
  %38 = icmp sge i32 %37, 65
  br i1 %38, label %39, label %51

39:                                               ; preds = %35
  %40 = load i8, ptr %3, align 1
  %41 = sext i8 %40 to i32
  %42 = icmp sle i32 %41, 70
  br i1 %42, label %43, label %51

43:                                               ; preds = %39
  %44 = load i8, ptr %3, align 1
  %45 = sext i8 %44 to i32
  %46 = sub nsw i32 %45, 65
  %47 = trunc i32 %46 to i8
  %48 = zext i8 %47 to i32
  %49 = add nsw i32 %48, 10
  %50 = trunc i32 %49 to i8
  store i8 %50, ptr %2, align 1
  br label %52

51:                                               ; preds = %39, %35
  store i8 0, ptr %2, align 1
  br label %52

52:                                               ; preds = %51, %43, %27, %11
  %53 = load i8, ptr %2, align 1
  ret i8 %53
}