; Function Attrs: mustprogress nofree norecurse nosync nounwind willreturn memory(none) uwtable
define noundef zeroext range(i8 0, 16) i8 @_ZN8WasmEdge16convertCharToHexEc(i8 noundef signext %0) local_unnamed_addr #0 {
  %2 = add i8 %0, -48
  %or.cond = icmp ult i8 %2, 10
  br i1 %or.cond, label %10, label %3

3:                                                ; preds = %1
  %4 = add i8 %0, -97
  %or.cond5 = icmp ult i8 %4, 6
  br i1 %or.cond5, label %5, label %7

5:                                                ; preds = %3
  %6 = add nsw i8 %0, -87
  br label %10

7:                                                ; preds = %3
  %8 = add i8 %0, -65
  %or.cond8 = icmp ult i8 %8, 6
  %9 = add nsw i8 %0, -55
  %spec.select = select i1 %or.cond8, i8 %9, i8 0
  br label %10

10:                                               ; preds = %1, %7, %5
  %.0 = phi i8 [ %6, %5 ], [ %spec.select, %7 ], [ %2, %1 ]
  ret i8 %.0
}